Certificate:
    Data:
        Version: 3 (0x2)
        Serial Number: 1 (0x1)
    Signature Algorithm: sha1WithRSAEncryption
        Issuer: C=CN, ST=GuangDong, L=ZJH, O=ZJH, OU=ZJH, CN=www.zjh.com/emailAddress=1542686987@qq.com
        Validity
            Not Before: May 30 10:08:05 2023 GMT
            Not After : May 29 10:08:05 2024 GMT
        Subject: C=CN, ST=GuangDong, O=ZJH, OU=ZJH, CN=www.server.com/emailAddress=1542686987@qq.com
        Subject Public Key Info:
            Public Key Algorithm: rsaEncryption
                RSA Public-Key: (4096 bit)
                Modulus:
                    00:bf:c0:a4:19:ae:6b:1c:ac:ec:4d:37:7f:5a:8d:
                    22:26:8f:04:f7:07:8a:a3:79:84:eb:7e:4c:0c:93:
                    e9:36:b8:0b:60:de:5f:05:61:4f:f4:91:a6:76:05:
                    e3:42:20:8e:d9:ac:4b:2e:15:d5:38:ce:b2:d4:48:
                    b7:cf:70:48:d6:6f:aa:a1:51:17:0a:4f:28:7e:3d:
                    a0:10:28:45:6c:f4:ef:22:c4:88:48:39:37:e5:2d:
                    60:aa:8d:36:4b:e6:4a:38:da:55:a8:8b:52:fa:e8:
                    c3:56:95:3f:0b:54:2b:b5:55:96:2c:68:8e:18:2c:
                    f8:25:6d:fe:d2:8b:db:c3:89:b0:20:ba:0e:8b:c8:
                    c6:31:51:95:77:a0:1a:c2:49:5d:0b:66:7f:4a:d1:
                    12:6f:5e:e2:73:69:2f:98:9c:55:be:13:30:e5:77:
                    c9:22:83:d2:47:f7:4d:ce:81:e2:7d:bf:e4:40:df:
                    57:76:b2:e5:c1:e9:aa:fd:03:fe:2f:ec:a0:43:01:
                    60:88:29:03:1c:5f:64:4f:d7:28:aa:5d:25:05:93:
                    41:b1:3e:60:f3:94:00:2b:4f:48:b2:9a:70:e7:67:
                    a7:e1:6a:fc:72:7c:3c:c1:9e:f7:80:c6:84:de:51:
                    a8:e0:c5:8c:1d:ad:b0:cc:32:da:66:83:0a:a2:e3:
                    76:5d:77:67:c5:ff:3c:a5:72:c7:7b:e9:ae:1b:89:
                    96:1a:06:8c:5f:7b:5d:28:c6:2b:00:a8:28:9b:03:
                    48:91:ca:d9:29:96:1c:4d:4f:27:74:7d:14:d5:3f:
                    c6:19:30:64:a6:2d:61:5d:32:10:28:df:d5:99:b3:
                    b9:34:c8:50:21:2a:61:98:86:20:ea:d8:60:d4:b5:
                    56:5c:fd:41:fb:13:76:43:15:3a:46:41:d3:3e:26:
                    2c:2d:14:50:b0:c9:c0:1e:6e:e4:a2:34:01:9b:85:
                    63:fd:72:30:2d:9d:bf:38:56:db:b6:51:9f:c0:07:
                    83:2c:2a:db:c1:d4:4b:84:63:7a:04:d4:df:ab:eb:
                    c8:f7:cf:cb:c7:5b:28:99:45:1c:0e:2b:97:10:13:
                    84:27:44:21:cf:a0:3e:1d:59:7b:ec:a4:65:79:e1:
                    0f:cc:51:b7:25:2b:92:db:48:24:2b:cf:fc:2a:05:
                    dd:9b:7f:ec:c1:51:12:fc:ff:8b:f6:a4:c0:c7:37:
                    13:f2:c8:25:db:03:88:15:51:3d:ac:5e:0c:30:18:
                    ed:ce:58:df:08:b5:ef:3e:5b:9d:f2:27:27:4a:00:
                    31:a4:3d:36:9a:b1:1c:c7:dc:4c:ea:dd:92:b1:37:
                    3e:66:9f:25:89:91:b7:17:58:6c:1b:cd:94:39:b7:
                    b2:e3:f3
                Exponent: 65537 (0x10001)
        X509v3 extensions:
            X509v3 Basic Constraints: 
                CA:FALSE
            Netscape Comment: 
                OpenSSL Generated Certificate
            X509v3 Subject Key Identifier: 
                1F:02:62:9F:F8:8D:83:78:81:F9:F3:1D:92:F9:9F:4D:78:29:4D:C4
            X509v3 Authority Key Identifier: 
                keyid:75:B8:7F:45:83:3D:2F:81:1A:88:CA:02:47:7C:28:81:BB:63:83:68

    Signature Algorithm: sha1WithRSAEncryption
         3b:f8:c9:a6:68:70:7e:11:2f:8f:6e:7b:0b:a1:66:1c:0d:b5:
         1f:77:c7:0e:2b:3b:12:e1:99:3f:16:ee:00:ed:db:d4:9e:49:
         7f:88:ac:6b:d5:dc:4d:1c:d3:39:d8:c2:11:62:ff:e7:26:81:
         3c:d7:d5:a7:ac:99:69:cf:42:82:3a:7b:b8:cd:0b:5c:b0:53:
         96:0a:5e:ef:c6:00:fe:0e:cc:2f:0b:88:b6:93:3e:b7:cc:3e:
         5f:84:b5:67:7f:e1:99:46:3a:a6:0b:d0:5a:76:a8:d7:f2:c4:
         a2:f4:33:93:4a:49:33:a3:ee:27:76:55:62:aa:e5:85:7b:1a:
         94:c0:4c:c8:71:fd:d3:b6:b9:df:4d:46:93:26:1d:2f:c6:8e:
         20:51:75:ce:d5:af:c2:f2:fc:aa:6b:92:f7:34:6a:e3:7d:25:
         4c:a1:94:2b:4f:1a:9c:97:37:1f:9b:75:d0:fe:89:49:74:1d:
         ac:c0:38:e0:8c:2c:78:c7:56:8f:95:db:e9:97:16:9d:a1:f8:
         61:35:32:ed:46:4b:d7:c6:22:f2:e5:e6:a4:fc:d8:ac:76:d6:
         b6:6f:b0:3b:9f:9b:f9:d3:f7:8f:5f:c2:53:b6:7f:5c:95:23:
         88:ce:11:2a:86:c3:a8:f2:2a:85:84:3e:48:a4:96:1c:43:b4:
         62:c3:62:4a:8a:89:81:14:95:47:bc:ab:e4:a5:18:cf:9c:b8:
         13:96:4b:30:1c:a3:fd:82:32:f3:1e:42:dc:b7:af:95:75:38:
         51:3c:cb:05:2e:dd:bb:09:d0:8e:61:9c:4f:c8:48:29:93:44:
         ae:1d:cf:8c:93:da:e4:59:64:3f:50:ba:22:13:4c:50:66:91:
         85:ed:0d:f0:de:db:3d:0a:87:b4:2b:7c:e7:bb:fc:b9:a4:f4:
         48:a4:2f:3e:ba:c6:cd:3c:2a:8b:05:3b:fd:5a:04:af:d6:db:
         2f:56:09:0b:e4:4f:ef:84:ee:78:73:92:45:7c:ac:21:be:7d:
         87:b8:51:53:76:dc:9e:ea:f2:13:67:c0:ae:09:b1:96:a9:18:
         e1:ec:5d:88:fd:c0:d8:7e:a4:a1:5c:cd:31:78:54:a4:17:55:
         60:8d:bb:71:35:a1:5c:0f:a7:9c:cb:8e:a5:fc:3c:10:07:21:
         9d:7b:43:6a:be:c8:26:f4:fb:70:a8:14:54:49:21:53:a5:d2:
         a9:27:17:ba:ee:4c:96:2d:5f:e2:ab:e5:d9:2c:8e:46:0d:48:
         96:8e:c8:0a:45:e6:67:8e:f9:01:57:6f:3f:91:6c:00:ec:ee:
         c1:b4:13:45:a9:8f:cb:3d:79:33:e8:13:97:8f:a8:cf:b9:15:
         bc:75:f1:dd:00:8b:6c:cd
-----BEGIN CERTIFICATE-----
MIIF8jCCA9qgAwIBAgIBATANBgkqhkiG9w0BAQUFADCBgzELMAkGA1UEBhMCQ04x
EjAQBgNVBAgTCUd1YW5nRG9uZzEMMAoGA1UEBxMDWkpIMQwwCgYDVQQKEwNaSkgx
DDAKBgNVBAsTA1pKSDEUMBIGA1UEAxMLd3d3LnpqaC5jb20xIDAeBgkqhkiG9w0B
CQEWETE1NDI2ODY5ODdAcXEuY29tMB4XDTIzMDUzMDEwMDgwNVoXDTI0MDUyOTEw
MDgwNVoweDELMAkGA1UEBhMCQ04xEjAQBgNVBAgTCUd1YW5nRG9uZzEMMAoGA1UE
ChMDWkpIMQwwCgYDVQQLEwNaSkgxFzAVBgNVBAMTDnd3dy5zZXJ2ZXIuY29tMSAw
HgYJKoZIhvcNAQkBFhExNTQyNjg2OTg3QHFxLmNvbTCCAiIwDQYJKoZIhvcNAQEB
BQADggIPADCCAgoCggIBAL/ApBmuaxys7E03f1qNIiaPBPcHiqN5hOt+TAyT6Ta4
C2DeXwVhT/SRpnYF40IgjtmsSy4V1TjOstRIt89wSNZvqqFRFwpPKH49oBAoRWz0
7yLEiEg5N+UtYKqNNkvmSjjaVaiLUvrow1aVPwtUK7VVlixojhgs+CVt/tKL28OJ
sCC6DovIxjFRlXegGsJJXQtmf0rREm9e4nNpL5icVb4TMOV3ySKD0kf3Tc6B4n2/
5EDfV3ay5cHpqv0D/i/soEMBYIgpAxxfZE/XKKpdJQWTQbE+YPOUACtPSLKacOdn
p+Fq/HJ8PMGe94DGhN5RqODFjB2tsMwy2maDCqLjdl13Z8X/PKVyx3vprhuJlhoG
jF97XSjGKwCoKJsDSJHK2SmWHE1PJ3R9FNU/xhkwZKYtYV0yECjf1ZmzuTTIUCEq
YZiGIOrYYNS1Vlz9QfsTdkMVOkZB0z4mLC0UULDJwB5u5KI0AZuFY/1yMC2dvzhW
27ZRn8AHgywq28HUS4RjegTU36vryPfPy8dbKJlFHA4rlxAThCdEIc+gPh1Ze+yk
ZXnhD8xRtyUrkttIJCvP/CoF3Zt/7MFREvz/i/akwMc3E/LIJdsDiBVRPaxeDDAY
7c5Y3wi17z5bnfInJ0oAMaQ9NpqxHMfcTOrdkrE3PmafJYmRtxdYbBvNlDm3suPz
AgMBAAGjezB5MAkGA1UdEwQCMAAwLAYJYIZIAYb4QgENBB8WHU9wZW5TU0wgR2Vu
ZXJhdGVkIENlcnRpZmljYXRlMB0GA1UdDgQWBBQfAmKf+I2DeIH58x2S+Z9NeClN
xDAfBgNVHSMEGDAWgBR1uH9Fgz0vgRqIygJHfCiBu2ODaDANBgkqhkiG9w0BAQUF
AAOCAgEAO/jJpmhwfhEvj257C6FmHA21H3fHDis7EuGZPxbuAO3b1J5Jf4isa9Xc
TRzTOdjCEWL/5yaBPNfVp6yZac9Cgjp7uM0LXLBTlgpe78YA/g7MLwuItpM+t8w+
X4S1Z3/hmUY6pgvQWnao1/LEovQzk0pJM6PuJ3ZVYqrlhXsalMBMyHH907a5301G
kyYdL8aOIFF1ztWvwvL8qmuS9zRq430lTKGUK08anJc3H5t10P6JSXQdrMA44Iws
eMdWj5Xb6ZcWnaH4YTUy7UZL18Yi8uXmpPzYrHbWtm+wO5+b+dP3j1/CU7Z/XJUj
iM4RKobDqPIqhYQ+SKSWHEO0YsNiSoqJgRSVR7yr5KUYz5y4E5ZLMByj/YIy8x5C
3LevlXU4UTzLBS7duwnQjmGcT8hIKZNErh3PjJPa5FlkP1C6IhNMUGaRhe0N8N7b
PQqHtCt857v8uaT0SKQvPrrGzTwqiwU7/VoEr9bbL1YJC+RP74TueHOSRXysIb59
h7hRU3bcnuryE2fArgmxlqkY4exdiP3A2H6koVzNMXhUpBdVYI27cTWhXA+nnMuO
pfw8EAchnXtDar7IJvT7cKgUVEkhU6XSqScXuu5Mli1f4qvl2SyORg1Ilo7ICkXm
Z475AVdvP5FsAOzuwbQTRamPyz15M+gTl4+oz7kVvHXx3QCLbM0=
-----END CERTIFICATE-----
