Certificate:
    Data:
        Version: 3 (0x2)
        Serial Number: 2 (0x2)
    Signature Algorithm: sha1WithRSAEncryption
        Issuer: C=CN, ST=GuangDong, L=ZJH, O=ZJH, OU=ZJH, CN=www.zjh.com/emailAddress=1542686987@qq.com
        Validity
            Not Before: May 30 11:31:48 2023 GMT
            Not After : May 31 11:31:48 2023 GMT
        Subject: C=CN, ST=GuangDong, O=ZJH, OU=ZJH, CN=www.client.com/emailAddress=1542686987@qq.com
        Subject Public Key Info:
            Public Key Algorithm: rsaEncryption
                RSA Public-Key: (4096 bit)
                Modulus:
                    00:a0:0e:f0:b9:36:05:c3:2b:51:9c:e7:61:04:10:
                    a3:90:f0:dd:bf:41:8f:03:48:9b:dd:1b:8d:0e:ca:
                    18:e9:ca:7f:4f:f6:78:ba:a8:84:f1:f3:d0:3a:56:
                    6d:50:8c:d6:fd:64:a5:7b:91:71:71:a2:31:73:49:
                    d0:1f:40:59:a5:30:bb:1d:a2:70:2c:e5:2e:97:57:
                    9c:96:9f:41:68:44:69:68:81:0a:e4:d4:22:de:c9:
                    48:0a:40:87:58:ba:f1:0e:b7:e2:69:37:9f:ea:b1:
                    1f:19:f3:c5:f1:01:6e:4b:16:c1:1e:a1:dc:02:2e:
                    73:a9:49:79:57:47:74:1b:ee:92:2a:b2:a9:e5:ac:
                    0f:c3:3a:4e:d1:33:35:31:b5:37:d4:3e:fc:9c:4e:
                    6f:cb:25:e9:55:4c:e6:cc:53:00:4f:aa:74:58:ee:
                    bc:6e:02:01:aa:d6:97:1d:03:cc:1a:82:87:20:24:
                    d7:b7:1f:ac:09:62:fc:35:69:de:25:6f:43:fa:b8:
                    78:9f:95:a6:07:48:1d:6f:4e:2c:9b:79:9c:b5:4c:
                    45:0b:fd:a8:6d:b4:88:96:de:5a:9e:e5:e3:39:d8:
                    c7:fb:60:fb:35:87:01:e1:46:93:e3:d7:9c:84:17:
                    bf:9a:f0:0d:18:ea:45:33:eb:a2:a3:5b:21:7e:64:
                    c6:85:9f:80:85:a1:da:b7:7e:a1:f6:66:78:03:45:
                    22:7f:44:79:ee:41:bf:d0:a5:5c:81:fa:41:0d:4c:
                    2d:f8:08:b8:f7:3e:5b:6d:7a:2d:4a:6c:a6:1f:28:
                    c2:f3:fa:f7:ce:79:81:c0:86:b4:84:5c:b6:ff:6c:
                    da:87:8c:04:d2:cd:2f:ab:ad:97:5b:5e:c4:f1:98:
                    00:b9:77:24:74:27:43:3e:80:ae:96:85:4c:95:92:
                    c2:28:04:65:83:14:0f:4c:47:95:33:52:0b:48:6c:
                    e3:d3:b6:76:e9:7e:75:92:77:7f:1d:e2:1f:6b:e7:
                    d8:48:4d:0e:1f:75:c8:6d:e2:b4:4f:f1:21:51:87:
                    17:d5:10:e5:53:21:39:ed:ee:89:39:1f:ec:ed:74:
                    56:66:47:bb:d7:fc:83:43:43:98:42:29:a2:b8:ce:
                    69:c5:5b:a4:f0:87:b6:57:78:62:6c:ad:ce:f9:5a:
                    18:36:38:f9:fa:7f:aa:a9:a6:a4:66:8a:fd:65:ad:
                    c1:36:62:1b:bd:95:08:88:61:7a:82:db:b6:5e:49:
                    b1:44:96:50:37:a8:06:41:3b:1e:86:42:dc:fe:9b:
                    61:70:a8:19:f6:b9:9a:7c:01:06:a8:54:90:a9:9e:
                    52:07:86:87:d5:69:af:66:5b:95:35:b3:c2:ad:13:
                    d4:28:87
                Exponent: 65537 (0x10001)
        X509v3 extensions:
            X509v3 Basic Constraints: 
                CA:FALSE
            Netscape Comment: 
                OpenSSL Generated Certificate
            X509v3 Subject Key Identifier: 
                54:50:44:76:50:A3:B5:EA:CA:9B:8A:0B:76:A1:DB:8B:44:80:CC:DE
            X509v3 Authority Key Identifier: 
                keyid:75:B8:7F:45:83:3D:2F:81:1A:88:CA:02:47:7C:28:81:BB:63:83:68

    Signature Algorithm: sha1WithRSAEncryption
         12:a2:ca:12:56:de:34:cd:e2:5f:9e:83:5b:94:7a:04:80:d3:
         a5:f6:33:c7:fd:06:46:47:52:8a:b9:94:ea:eb:ef:a5:78:a7:
         d9:f2:ee:a2:1b:f0:f0:77:98:b7:06:5f:0a:7a:ac:3b:91:50:
         c7:2d:38:c3:83:3f:7e:ac:a2:e5:2f:6e:e2:3c:25:d9:a4:bb:
         69:88:0f:4c:ae:ab:85:56:28:91:81:3d:6f:b9:64:e8:95:ad:
         d9:7b:84:f9:10:25:ac:74:d0:6a:04:76:f2:f6:44:b9:e4:a9:
         ff:9e:b6:88:a5:1b:67:89:c7:54:6b:27:b3:85:0e:b8:07:dc:
         6e:62:47:3a:96:e1:c6:77:8f:75:87:33:34:1d:f4:43:3a:4f:
         7a:65:16:66:7a:b2:10:21:89:74:29:fd:2a:5d:dc:c7:f7:bc:
         08:f3:c6:8c:04:89:b4:55:71:6a:f9:d7:c0:61:ae:bb:f0:9d:
         56:ab:ef:4e:8a:75:68:58:b8:43:b7:13:4b:82:52:c6:8c:ed:
         b8:e8:82:82:ae:ae:93:ea:49:1a:84:f4:5a:f9:d6:55:7d:fc:
         fb:53:81:be:f5:4d:21:a4:53:5e:ce:1d:87:50:6a:7a:9c:2c:
         49:71:5e:73:e2:63:9a:dc:c0:9b:1c:7b:e4:2f:48:dc:8b:ca:
         0b:51:1d:f0:c5:d1:80:6f:c5:83:db:20:a1:ce:3f:0b:ff:ab:
         92:35:ec:07:b3:c4:2d:66:84:ae:3e:09:1c:a7:07:db:93:7a:
         86:e6:a3:70:5a:10:e8:c6:a5:de:7b:5a:63:f5:20:9b:6a:42:
         fb:15:88:7a:8e:70:f3:8d:ad:47:34:fd:2f:a0:a6:70:ca:38:
         1b:8e:31:f4:a4:fb:e8:04:96:a3:f1:51:7d:9f:ee:e8:2e:46:
         63:4a:e6:0a:cf:bc:db:32:f2:5d:47:1e:71:4f:c2:71:78:ce:
         f3:b1:24:fa:25:7b:79:9b:9f:23:a1:f0:f5:da:e2:7d:ad:da:
         ef:1b:8c:9c:10:db:24:ba:20:03:a3:8b:df:b0:25:ab:33:02:
         76:d5:6e:8e:5c:b6:bc:8b:46:f7:93:45:1f:0c:b6:67:71:5c:
         47:15:c2:0d:9a:2a:44:56:37:cd:bb:fd:cf:82:6c:6f:fe:7c:
         d9:82:4d:26:6b:3d:65:05:76:8e:dc:1c:f9:5b:d0:05:50:3b:
         8a:ff:c9:c9:0a:af:24:f3:4d:b6:a5:fe:ef:17:43:e2:5f:9c:
         d3:39:ff:2d:94:86:d6:6c:20:c1:c5:a9:83:a3:99:13:4f:ed:
         22:27:0a:e1:83:60:7a:32:fe:72:69:47:46:72:9b:bf:97:b1:
         30:3e:29:62:8e:e8:6a:ae
-----BEGIN CERTIFICATE-----
MIIF8jCCA9qgAwIBAgIBAjANBgkqhkiG9w0BAQUFADCBgzELMAkGA1UEBhMCQ04x
EjAQBgNVBAgTCUd1YW5nRG9uZzEMMAoGA1UEBxMDWkpIMQwwCgYDVQQKEwNaSkgx
DDAKBgNVBAsTA1pKSDEUMBIGA1UEAxMLd3d3LnpqaC5jb20xIDAeBgkqhkiG9w0B
CQEWETE1NDI2ODY5ODdAcXEuY29tMB4XDTIzMDUzMDExMzE0OFoXDTIzMDUzMTEx
MzE0OFoweDELMAkGA1UEBhMCQ04xEjAQBgNVBAgTCUd1YW5nRG9uZzEMMAoGA1UE
ChMDWkpIMQwwCgYDVQQLEwNaSkgxFzAVBgNVBAMTDnd3dy5jbGllbnQuY29tMSAw
HgYJKoZIhvcNAQkBFhExNTQyNjg2OTg3QHFxLmNvbTCCAiIwDQYJKoZIhvcNAQEB
BQADggIPADCCAgoCggIBAKAO8Lk2BcMrUZznYQQQo5Dw3b9BjwNIm90bjQ7KGOnK
f0/2eLqohPHz0DpWbVCM1v1kpXuRcXGiMXNJ0B9AWaUwux2icCzlLpdXnJafQWhE
aWiBCuTUIt7JSApAh1i68Q634mk3n+qxHxnzxfEBbksWwR6h3AIuc6lJeVdHdBvu
kiqyqeWsD8M6TtEzNTG1N9Q+/JxOb8sl6VVM5sxTAE+qdFjuvG4CAarWlx0DzBqC
hyAk17cfrAli/DVp3iVvQ/q4eJ+VpgdIHW9OLJt5nLVMRQv9qG20iJbeWp7l4znY
x/tg+zWHAeFGk+PXnIQXv5rwDRjqRTProqNbIX5kxoWfgIWh2rd+ofZmeANFIn9E
ee5Bv9ClXIH6QQ1MLfgIuPc+W216LUpsph8owvP69855gcCGtIRctv9s2oeMBNLN
L6utl1texPGYALl3JHQnQz6ArpaFTJWSwigEZYMUD0xHlTNSC0hs49O2dul+dZJ3
fx3iH2vn2EhNDh91yG3itE/xIVGHF9UQ5VMhOe3uiTkf7O10VmZHu9f8g0NDmEIp
orjOacVbpPCHtld4YmytzvlaGDY4+fp/qqmmpGaK/WWtwTZiG72VCIhheoLbtl5J
sUSWUDeoBkE7HoZC3P6bYXCoGfa5mnwBBqhUkKmeUgeGh9Vpr2ZblTWzwq0T1CiH
AgMBAAGjezB5MAkGA1UdEwQCMAAwLAYJYIZIAYb4QgENBB8WHU9wZW5TU0wgR2Vu
ZXJhdGVkIENlcnRpZmljYXRlMB0GA1UdDgQWBBRUUER2UKO16sqbigt2oduLRIDM
3jAfBgNVHSMEGDAWgBR1uH9Fgz0vgRqIygJHfCiBu2ODaDANBgkqhkiG9w0BAQUF
AAOCAgEAEqLKElbeNM3iX56DW5R6BIDTpfYzx/0GRkdSirmU6uvvpXin2fLuohvw
8HeYtwZfCnqsO5FQxy04w4M/fqyi5S9u4jwl2aS7aYgPTK6rhVYokYE9b7lk6JWt
2XuE+RAlrHTQagR28vZEueSp/562iKUbZ4nHVGsns4UOuAfcbmJHOpbhxnePdYcz
NB30QzpPemUWZnqyECGJdCn9Kl3cx/e8CPPGjASJtFVxavnXwGGuu/CdVqvvTop1
aFi4Q7cTS4JSxoztuOiCgq6uk+pJGoT0WvnWVX38+1OBvvVNIaRTXs4dh1Bqepws
SXFec+JjmtzAmxx75C9I3IvKC1Ed8MXRgG/Fg9sgoc4/C/+rkjXsB7PELWaErj4J
HKcH25N6huajcFoQ6Mal3ntaY/Ugm2pC+xWIeo5w842tRzT9L6CmcMo4G44x9KT7
6ASWo/FRfZ/u6C5GY0rmCs+82zLyXUcecU/CcXjO87Ek+iV7eZufI6Hw9drifa3a
7xuMnBDbJLogA6OL37AlqzMCdtVujly2vItG95NFHwy2Z3FcRxXCDZoqRFY3zbv9
z4Jsb/582YJNJms9ZQV2jtwc+VvQBVA7iv/JyQqvJPNNtqX+7xdD4l+c0zn/LZSG
1mwgwcWpg6OZE0/tIicK4YNgejL+cmlHRnKbv5exMD4pYo7oaq4=
-----END CERTIFICATE-----
